; Function Attrs: mustprogress uwtable
define dso_local void @_ZN4Luau16ConstraintSolver7unblockEPKNS_11TypePackVarENS_8LocationE(ptr noundef nonnull align 8 dereferenceable(1032) %0, ptr noundef %1, i64 %2, i64 %3) local_unnamed_addr #4 align 2 personality ptr @__gxx_personality_v0 {
  %5 = alloca %"class.Luau::Variant.198", align 8
  %6 = getelementptr inbounds nuw i8, ptr %0, i64 752
  %7 = load ptr, ptr %6, align 8, !tbaa !286
  %.not = icmp eq ptr %7, null
  br i1 %.not, label %9, label %8

8:                                                ; preds = %4
  tail call void @_ZN4Luau9DcrLogger8popBlockEPKNS_11TypePackVarE(ptr noundef nonnull align 8 dereferenceable(936) %7, ptr noundef %1)
  br label %9

9:                                                ; preds = %8, %4
  store i32 1, ptr %5, align 8, !tbaa !107
  %10 = getelementptr inbounds nuw i8, ptr %5, i64 8
  store ptr %1, ptr %10, align 8, !tbaa !171
  invoke void @_ZN4Luau16ConstraintSolver8unblock_ENS_7VariantIJPKNS_4TypeEPKNS_11TypePackVarEPKNS_10ConstraintEEEE(ptr noundef nonnull align 8 dereferenceable(1032) %0, ptr noundef nonnull %5)
          to label %11 unwind label %19

11:                                               ; preds = %9
  %12 = load i32, ptr %5, align 8, !tbaa !107
  %13 = sext i32 %12 to i64
  %14 = getelementptr inbounds [3 x ptr], ptr @_ZN4Luau7VariantIJPKNS_4TypeEPKNS_11TypePackVarEPKNS_10ConstraintEEE9tableDtorE, i64 0, i64 %13
  %15 = load ptr, ptr %14, align 8, !tbaa !15
  invoke void %15(ptr noundef nonnull %10)
          to label %_ZN4Luau7VariantIJPKNS_4TypeEPKNS_11TypePackVarEPKNS_10ConstraintEEED2Ev.exit unwind label %16

16:                                               ; preds = %11
  %17 = landingpad { ptr, i32 }
          catch ptr null
  %18 = extractvalue { ptr, i32 } %17, 0
  call void @__clang_call_terminate(ptr %18) #32
  unreachable

_ZN4Luau7VariantIJPKNS_4TypeEPKNS_11TypePackVarEPKNS_10ConstraintEEED2Ev.exit: ; preds = %11
  ret void

19:                                               ; preds = %9
  %20 = landingpad { ptr, i32 }
          cleanup
  %21 = load i32, ptr %5, align 8, !tbaa !107
  %22 = sext i32 %21 to i64
  %23 = getelementptr inbounds [3 x ptr], ptr @_ZN4Luau7VariantIJPKNS_4TypeEPKNS_11TypePackVarEPKNS_10ConstraintEEE9tableDtorE, i64 0, i64 %22
  %24 = load ptr, ptr %23, align 8, !tbaa !15
  invoke void %24(ptr noundef nonnull %10)
          to label %_ZN4Luau7VariantIJPKNS_4TypeEPKNS_11TypePackVarEPKNS_10ConstraintEEED2Ev.exit2 unwind label %25

25:                                               ; preds = %19
  %26 = landingpad { ptr, i32 }
          catch ptr null
  %27 = extractvalue { ptr, i32 } %26, 0
  call void @__clang_call_terminate(ptr %27) #32
  unreachable

_ZN4Luau7VariantIJPKNS_4TypeEPKNS_11TypePackVarEPKNS_10ConstraintEEED2Ev.exit2: ; preds = %19
  resume { ptr, i32 } %20
}